ccopy_reg
_reconstructor
p0
(cgoogle.oauth2.credentials
Credentials
p1
c__builtin__
object
p2
Ntp3
Rp4
(dp5
S'_token_uri'
p6
Vhttps://oauth2.googleapis.com/token
p7
sS'_scopes'
p8
(lp9
S'https://www.googleapis.com/auth/tasks.readonly'
p10
aS'https://www.googleapis.com/auth/tasks'
p11
asS'_id_token'
p12
NsS'token'
p13
Vya29.Glw0BwPRg-dzDqQ37pZ80lnkicbzf2nVql6lPy_o0f0FUA0vSnTcAxx8elMg_fKAYRFr3tK7cwaZh82xfN-4Zk3AGAx0yg0uLUWU02T23FQui8ZKaKX9YH_9ISSzEQ
p14
sS'_refresh_token'
p15
V1/A37YMyCan62Hvheb0XL0gVLj4bv2fDjepivu3POzxXc
p16
sS'_client_secret'
p17
VrbT0mClix3hqId5CjHkSDMV1
p18
sS'_client_id'
p19
V968643229429-6qcj0c8s92kdha2mverodbdas2p7a1dg.apps.googleusercontent.com
p20
sS'expiry'
p21
cdatetime
datetime
p22
(S'\x07\xe3\x06\x1b\x15\x08%\x08\xe2l'
p23
tp24
Rp25
sb.